target datalayout = "e-m:e-p270:32:32-p271:32:32-p272:64:64-i64:64-i128:128-f80:128-n8:16:32:64-S128"
target triple = "x86_64-pc-linux-gnu"

%struct.Curl_cftype = type { ptr, i32, i32, ptr, ptr, ptr, ptr, ptr, ptr, ptr, ptr, ptr, ptr, ptr, ptr, ptr }
%struct.Curl_cfilter = type { ptr, ptr, ptr, ptr, i32, i8 }
%struct.cf_call_data = type { ptr }
%struct.cf_h2_proxy_ctx = type { ptr, %struct.cf_call_data, %struct.bufq, %struct.bufq, %struct.tunnel_stream, i32, i32, i8 }
%struct.bufq = type { ptr, ptr, ptr, ptr, i64, i64, i64, i32 }
%struct.tunnel_stream = type { ptr, %struct.bufq, %struct.bufq, ptr, i32, i32, i32, i8 }
%struct.Curl_easy = type { i32, i64, i64, ptr, %struct.Curl_llist_node, %struct.Curl_llist_node, i32, i32, %struct.Curl_message, %struct.easy_pollset, %struct.Names, ptr, ptr, ptr, %struct.SingleRequest, %struct.UserDefined, ptr, ptr, %struct.Progress, %struct.UrlState, ptr, %struct.PureInfo, %struct.curl_tlssessioninfo }
%struct.Curl_llist_node = type { ptr, ptr, ptr, ptr }
%struct.Curl_message = type { %struct.Curl_llist_node, %struct.CURLMsg }
%struct.CURLMsg = type { i32, ptr, %union.anon }
%union.anon = type { ptr }
%struct.easy_pollset = type { [5 x i32], i32, [5 x i8] }
%struct.Names = type { ptr, i32 }
%struct.SingleRequest = type <{ i64, i64, i64, i64, %struct.curltime, i32, i32, i32, i32, i64, i32, i32, i32, i32, ptr, ptr, %struct.bufq, i64, i64, ptr, ptr, %union.anon.0, ptr, i8, i32, [3 x i8] }>
%struct.curltime = type { i64, i32 }
%union.anon.0 = type { ptr }
%struct.UserDefined = type <{ ptr, ptr, ptr, ptr, ptr, ptr, i16, [6 x i8], i64, i64, i64, ptr, ptr, i64, i16, i16, [4 x i8], ptr, ptr, ptr, ptr, ptr, ptr, ptr, ptr, ptr, ptr, ptr, ptr, ptr, ptr, ptr, ptr, ptr, ptr, ptr, ptr, ptr, ptr, ptr, i32, i32, i32, i32, i32, [4 x i8], i64, i64, i64, i64, i64, i64, i64, i64, ptr, ptr, %struct.curl_mimepart, ptr, ptr, i64, i8, i8, i8, [5 x i8], %struct.ssl_config_data, %struct.ssl_config_data, ptr, i16, i8, i8, [4 x i8], %struct.ssl_general_config, i32, i32, i32, [4 x i8], ptr, ptr, i8, [7 x i8], i64, i8, i8, i8, i8, i32, ptr, ptr, ptr, i8, i8, [2 x i8], i32, [63 x ptr], [8 x ptr], i32, i32, i32, [4 x i8], ptr, ptr, ptr, ptr, ptr, i8, [3 x i8], i32, i32, i32, i64, %struct.Curl_data_priority, ptr, ptr, i64, ptr, i64, ptr, ptr, ptr, i8, [3 x i8], i32, i8, i8, i64, [6 x i8] }>
%struct.curl_mimepart = type { ptr, ptr, i32, i32, ptr, ptr, ptr, ptr, ptr, ptr, ptr, ptr, ptr, ptr, ptr, i64, %struct.mime_state, ptr, %struct.mime_encoder_state, i64 }
%struct.mime_state = type { i32, ptr, i64 }
%struct.mime_encoder_state = type { i64, i64, i64, [256 x i8] }
%struct.ssl_config_data = type { %struct.ssl_primary_config, i64, ptr, ptr, ptr, ptr, ptr, ptr, ptr, i16 }
%struct.ssl_primary_config = type { ptr, ptr, ptr, ptr, ptr, ptr, ptr, ptr, ptr, ptr, ptr, ptr, i8, i32, i8, i8 }
%struct.ssl_general_config = type { i64, i32 }
%struct.Curl_data_priority = type { ptr, ptr, i32, i8 }
%struct.Progress = type { i64, %struct.pgrs_dir, %struct.pgrs_dir, i64, i64, i32, i32, i64, i64, i64, i64, i64, i64, i64, i64, i64, %struct.curltime, %struct.curltime, %struct.curltime, %struct.curltime, [6 x i64], [6 x %struct.curltime], i32, i8 }
%struct.pgrs_dir = type { i64, i64, i64, %struct.pgrs_measure }
%struct.pgrs_measure = type { %struct.curltime, i64 }
%struct.UrlState = type { %struct.curltime, i64, i64, %struct.dynbuf, ptr, i64, ptr, i32, i32, i32, ptr, i64, i32, i64, i32, ptr, %struct.digestdata, %struct.digestdata, %struct.auth, %struct.auth, %struct.Curl_async, ptr, %struct.curltime, %struct.Curl_tree, %struct.Curl_llist, [15 x %struct.time_node], ptr, ptr, i64, i64, %struct.Curl_data_priority, ptr, ptr, ptr, %struct.urlpieces, ptr, ptr, ptr, ptr, ptr, i64, %struct.dynbuf, %struct.Curl_llist, [2 x %struct.curl_header], ptr, i32, ptr, ptr, %struct.store_netrc, %struct.dynamically_allocated_data, i8, i8, i8, i8, i32 }
%struct.digestdata = type { ptr, ptr, ptr, ptr, ptr, ptr, i32, i8, i8 }
%struct.auth = type { i64, i64, i64, i8 }
%struct.Curl_async = type { ptr, ptr, ptr, ptr, i32, i32, i8 }
%struct.Curl_tree = type { ptr, ptr, ptr, ptr, %struct.curltime, ptr }
%struct.time_node = type { %struct.Curl_llist_node, %struct.curltime, i32 }
%struct.urlpieces = type { ptr, ptr, ptr, ptr, ptr, ptr, ptr, ptr }
%struct.dynbuf = type { ptr, i64, i64, i64 }
%struct.Curl_llist = type { ptr, ptr, ptr, i64 }
%struct.curl_header = type { ptr, ptr, i64, i64, i32, ptr }
%struct.store_netrc = type { %struct.dynbuf, ptr, i8 }
%struct.dynamically_allocated_data = type { ptr, ptr, ptr, ptr, ptr, ptr, ptr, ptr, ptr, ptr, ptr, ptr, ptr }
%struct.PureInfo = type { i32, i32, i32, i64, i64, i64, i64, i64, ptr, ptr, i64, i32, %struct.ip_quadruple, i32, ptr, i32, %struct.curl_certinfo, i32, i8 }
%struct.ip_quadruple = type { [46 x i8], [46 x i8], i32, i32 }
%struct.curl_certinfo = type { i32, ptr }
%struct.curl_tlssessioninfo = type { i32, ptr }
%struct.curl_trc_feat = type { ptr, i32 }

@.str.54 = private unnamed_addr constant [38 x i8] c"[0] nghttp2_session_send error (%s)%d\00", align 1
@.str.55 = private unnamed_addr constant [40 x i8] c"[0] flush nw send buffer(%zu) -> EAGAIN\00", align 1
@.str.56 = private unnamed_addr constant [27 x i8] c"[0] nw send buffer flushed\00", align 1

; Function Attrs: nounwind uwtable
define internal i32 @proxy_h2_nw_out_flush(ptr noundef %0, ptr noundef %1) #0 {
  %3 = alloca i32, align 4
  %4 = alloca ptr, align 8
  %5 = alloca ptr, align 8
  %6 = alloca ptr, align 8
  %7 = alloca i64, align 8
  %8 = alloca i32, align 4
  %9 = alloca i32, align 4
  store ptr %0, ptr %4, align 8, !tbaa !4
  store ptr %1, ptr %5, align 8, !tbaa !9
  call void @llvm.lifetime.start.p0(i64 8, ptr %6) #6
  %10 = load ptr, ptr %4, align 8, !tbaa !4
  %11 = getelementptr inbounds nuw %struct.Curl_cfilter, ptr %10, i32 0, i32 2
  %12 = load ptr, ptr %11, align 8, !tbaa !11
  store ptr %12, ptr %6, align 8, !tbaa !16
  call void @llvm.lifetime.start.p0(i64 8, ptr %7) #6
  call void @llvm.lifetime.start.p0(i64 4, ptr %8) #6
  %13 = load ptr, ptr %6, align 8, !tbaa !16
  %14 = getelementptr inbounds nuw %struct.cf_h2_proxy_ctx, ptr %13, i32 0, i32 3
  %15 = call zeroext i1 @Curl_bufq_is_empty(ptr noundef %14)
  br i1 %15, label %16, label %17

16:                                               ; preds = %2
  store i32 0, ptr %3, align 4
  store i32 1, ptr %9, align 4
  br label %127

17:                                               ; preds = %2
  %18 = load ptr, ptr %6, align 8, !tbaa !16
  %19 = getelementptr inbounds nuw %struct.cf_h2_proxy_ctx, ptr %18, i32 0, i32 3
  %20 = load ptr, ptr %4, align 8, !tbaa !4
  %21 = call i64 @Curl_bufq_pass(ptr noundef %19, ptr noundef @proxy_h2_nw_out_writer, ptr noundef %20, ptr noundef %8)
  store i64 %21, ptr %7, align 8, !tbaa !41
  %22 = load i64, ptr %7, align 8, !tbaa !41
  %23 = icmp slt i64 %22, 0
  br i1 %23, label %24, label %80

24:                                               ; preds = %17
  %25 = load i32, ptr %8, align 4, !tbaa !22
  %26 = icmp eq i32 %25, 81
  br i1 %26, label %27, label %78

27:                                               ; preds = %24
  br label %28

28:                                               ; preds = %27
  %29 = load ptr, ptr %5, align 8, !tbaa !9
  %30 = icmp ne ptr %29, null
  br i1 %30, label %31, label %70

31:                                               ; preds = %28
  %32 = load ptr, ptr %5, align 8, !tbaa !9
  %33 = getelementptr inbounds nuw %struct.Curl_easy, ptr %32, i32 0, i32 15
  %34 = getelementptr inbounds nuw %struct.UserDefined, ptr %33, i32 0, i32 124
  %35 = load i64, ptr %34, align 2
  %36 = lshr i64 %35, 27
  %37 = and i64 %36, 1
  %38 = trunc i64 %37 to i32
  %39 = icmp ne i32 %38, 0
  br i1 %39, label %40, label %70

40:                                               ; preds = %31
  %41 = load ptr, ptr %5, align 8, !tbaa !9
  %42 = getelementptr inbounds nuw %struct.Curl_easy, ptr %41, i32 0, i32 19
  %43 = getelementptr inbounds nuw %struct.UrlState, ptr %42, i32 0, i32 47
  %44 = load ptr, ptr %43, align 8, !tbaa !49
  %45 = icmp ne ptr %44, null
  br i1 %45, label %46, label %54

46:                                               ; preds = %40
  %47 = load ptr, ptr %5, align 8, !tbaa !9
  %48 = getelementptr inbounds nuw %struct.Curl_easy, ptr %47, i32 0, i32 19
  %49 = getelementptr inbounds nuw %struct.UrlState, ptr %48, i32 0, i32 47
  %50 = load ptr, ptr %49, align 8, !tbaa !49
  %51 = getelementptr inbounds nuw %struct.curl_trc_feat, ptr %50, i32 0, i32 1
  %52 = load i32, ptr %51, align 8, !tbaa !111
  %53 = icmp sge i32 %52, 1
  br i1 %53, label %54, label %70

54:                                               ; preds = %46, %40
  %55 = load ptr, ptr %4, align 8, !tbaa !4
  %56 = icmp ne ptr %55, null
  br i1 %56, label %57, label %70

57:                                               ; preds = %54
  %58 = load ptr, ptr %4, align 8, !tbaa !4
  %59 = getelementptr inbounds nuw %struct.Curl_cfilter, ptr %58, i32 0, i32 0
  %60 = load ptr, ptr %59, align 8, !tbaa !43
  %61 = getelementptr inbounds nuw %struct.Curl_cftype, ptr %60, i32 0, i32 2
  %62 = load i32, ptr %61, align 4, !tbaa !113
  %63 = icmp sge i32 %62, 1
  br i1 %63, label %64, label %70

64:                                               ; preds = %57
  %65 = load ptr, ptr %5, align 8, !tbaa !9
  %66 = load ptr, ptr %4, align 8, !tbaa !4
  %67 = load ptr, ptr %6, align 8, !tbaa !16
  %68 = getelementptr inbounds nuw %struct.cf_h2_proxy_ctx, ptr %67, i32 0, i32 3
  %69 = call i64 @Curl_bufq_len(ptr noundef %68)
  call void (ptr, ptr, ptr, ...) @Curl_trc_cf_infof(ptr noundef %65, ptr noundef %66, ptr noundef @.str.55, i64 noundef %69)
  br label %70

70:                                               ; preds = %64, %57, %54, %46, %31, %28
  br label %71

71:                                               ; preds = %70
  br label %72

72:                                               ; preds = %71
  %73 = load ptr, ptr %6, align 8, !tbaa !16
  %74 = getelementptr inbounds nuw %struct.cf_h2_proxy_ctx, ptr %73, i32 0, i32 7
  %75 = load i8, ptr %74, align 8
  %76 = and i8 %75, -9
  %77 = or i8 %76, 8
  store i8 %77, ptr %74, align 8
  br label %78

78:                                               ; preds = %72, %24
  %79 = load i32, ptr %8, align 4, !tbaa !22
  store i32 %79, ptr %3, align 4
  store i32 1, ptr %9, align 4
  br label %127

80:                                               ; preds = %17
  br label %81

81:                                               ; preds = %80
  %82 = load ptr, ptr %5, align 8, !tbaa !9
  %83 = icmp ne ptr %82, null
  br i1 %83, label %84, label %120

84:                                               ; preds = %81
  %85 = load ptr, ptr %5, align 8, !tbaa !9
  %86 = getelementptr inbounds nuw %struct.Curl_easy, ptr %85, i32 0, i32 15
  %87 = getelementptr inbounds nuw %struct.UserDefined, ptr %86, i32 0, i32 124
  %88 = load i64, ptr %87, align 2
  %89 = lshr i64 %88, 27
  %90 = and i64 %89, 1
  %91 = trunc i64 %90 to i32
  %92 = icmp ne i32 %91, 0
  br i1 %92, label %93, label %120

93:                                               ; preds = %84
  %94 = load ptr, ptr %5, align 8, !tbaa !9
  %95 = getelementptr inbounds nuw %struct.Curl_easy, ptr %94, i32 0, i32 19
  %96 = getelementptr inbounds nuw %struct.UrlState, ptr %95, i32 0, i32 47
  %97 = load ptr, ptr %96, align 8, !tbaa !49
  %98 = icmp ne ptr %97, null
  br i1 %98, label %99, label %107

99:                                               ; preds = %93
  %100 = load ptr, ptr %5, align 8, !tbaa !9
  %101 = getelementptr inbounds nuw %struct.Curl_easy, ptr %100, i32 0, i32 19
  %102 = getelementptr inbounds nuw %struct.UrlState, ptr %101, i32 0, i32 47
  %103 = load ptr, ptr %102, align 8, !tbaa !49
  %104 = getelementptr inbounds nuw %struct.curl_trc_feat, ptr %103, i32 0, i32 1
  %105 = load i32, ptr %104, align 8, !tbaa !111
  %106 = icmp sge i32 %105, 1
  br i1 %106, label %107, label %120

107:                                              ; preds = %99, %93
  %108 = load ptr, ptr %4, align 8, !tbaa !4
  %109 = icmp ne ptr %108, null
  br i1 %109, label %110, label %120

110:                                              ; preds = %107
  %111 = load ptr, ptr %4, align 8, !tbaa !4
  %112 = getelementptr inbounds nuw %struct.Curl_cfilter, ptr %111, i32 0, i32 0
  %113 = load ptr, ptr %112, align 8, !tbaa !43
  %114 = getelementptr inbounds nuw %struct.Curl_cftype, ptr %113, i32 0, i32 2
  %115 = load i32, ptr %114, align 4, !tbaa !113
  %116 = icmp sge i32 %115, 1
  br i1 %116, label %117, label %120

117:                                              ; preds = %110
  %118 = load ptr, ptr %5, align 8, !tbaa !9
  %119 = load ptr, ptr %4, align 8, !tbaa !4
  call void (ptr, ptr, ptr, ...) @Curl_trc_cf_infof(ptr noundef %118, ptr noundef %119, ptr noundef @.str.56)
  br label %120

120:                                              ; preds = %117, %110, %107, %99, %84, %81
  br label %121

121:                                              ; preds = %120
  br label %122

122:                                              ; preds = %121
  %123 = load ptr, ptr %6, align 8, !tbaa !16
  %124 = getelementptr inbounds nuw %struct.cf_h2_proxy_ctx, ptr %123, i32 0, i32 3
  %125 = call zeroext i1 @Curl_bufq_is_empty(ptr noundef %124)
  %126 = select i1 %125, i32 0, i32 81
  store i32 %126, ptr %3, align 4
  store i32 1, ptr %9, align 4
  br label %127

127:                                              ; preds = %122, %78, %16
  call void @llvm.lifetime.end.p0(i64 4, ptr %8) #6
  call void @llvm.lifetime.end.p0(i64 8, ptr %7) #6
  call void @llvm.lifetime.end.p0(i64 8, ptr %6) #6
  %128 = load i32, ptr %3, align 4
  ret i32 %128
}

; Function Attrs: nounwind uwtable
define internal i32 @proxy_h2_progress_egress(ptr noundef %0, ptr noundef %1) #0 {
  %3 = alloca i32, align 4
  %4 = alloca ptr, align 8
  %5 = alloca ptr, align 8
  %6 = alloca ptr, align 8
  %7 = alloca i32, align 4
  %8 = alloca i32, align 4
  store ptr %0, ptr %4, align 8, !tbaa !4
  store ptr %1, ptr %5, align 8, !tbaa !9
  call void @llvm.lifetime.start.p0(i64 8, ptr %6) #6
  %9 = load ptr, ptr %4, align 8, !tbaa !4
  %10 = getelementptr inbounds nuw %struct.Curl_cfilter, ptr %9, i32 0, i32 2
  %11 = load ptr, ptr %10, align 8, !tbaa !11
  store ptr %11, ptr %6, align 8, !tbaa !16
  call void @llvm.lifetime.start.p0(i64 4, ptr %7) #6
  store i32 0, ptr %7, align 4, !tbaa !22
  %12 = load ptr, ptr %6, align 8, !tbaa !16
  %13 = getelementptr inbounds nuw %struct.cf_h2_proxy_ctx, ptr %12, i32 0, i32 7
  %14 = load i8, ptr %13, align 8
  %15 = and i8 %14, -9
  %16 = or i8 %15, 0
  store i8 %16, ptr %13, align 8
  br label %17

17:                                               ; preds = %36, %2
  %18 = load i32, ptr %7, align 4, !tbaa !22
  %19 = icmp ne i32 %18, 0
  br i1 %19, label %34, label %20

20:                                               ; preds = %17
  %21 = load ptr, ptr %6, align 8, !tbaa !16
  %22 = getelementptr inbounds nuw %struct.cf_h2_proxy_ctx, ptr %21, i32 0, i32 7
  %23 = load i8, ptr %22, align 8
  %24 = lshr i8 %23, 3
  %25 = and i8 %24, 1
  %26 = zext i8 %25 to i32
  %27 = icmp ne i32 %26, 0
  br i1 %27, label %34, label %28

28:                                               ; preds = %20
  %29 = load ptr, ptr %6, align 8, !tbaa !16
  %30 = getelementptr inbounds nuw %struct.cf_h2_proxy_ctx, ptr %29, i32 0, i32 0
  %31 = load ptr, ptr %30, align 8, !tbaa !40
  %32 = call i32 @nghttp2_session_want_write(ptr noundef %31)
  %33 = icmp ne i32 %32, 0
  br label %34

34:                                               ; preds = %28, %20, %17
  %35 = phi i1 [ false, %20 ], [ false, %17 ], [ %33, %28 ]
  br i1 %35, label %36, label %41

36:                                               ; preds = %34
  %37 = load ptr, ptr %6, align 8, !tbaa !16
  %38 = getelementptr inbounds nuw %struct.cf_h2_proxy_ctx, ptr %37, i32 0, i32 0
  %39 = load ptr, ptr %38, align 8, !tbaa !40
  %40 = call i32 @nghttp2_session_send(ptr noundef %39)
  store i32 %40, ptr %7, align 4, !tbaa !22
  br label %17, !llvm.loop !152

41:                                               ; preds = %34
  %42 = load i32, ptr %7, align 4, !tbaa !22
  %43 = call i32 @nghttp2_is_fatal(i32 noundef %42)
  %44 = icmp ne i32 %43, 0
  br i1 %44, label %45, label %91

45:                                               ; preds = %41
  br label %46

46:                                               ; preds = %45
  %47 = load ptr, ptr %5, align 8, !tbaa !9
  %48 = icmp ne ptr %47, null
  br i1 %48, label %49, label %88

49:                                               ; preds = %46
  %50 = load ptr, ptr %5, align 8, !tbaa !9
  %51 = getelementptr inbounds nuw %struct.Curl_easy, ptr %50, i32 0, i32 15
  %52 = getelementptr inbounds nuw %struct.UserDefined, ptr %51, i32 0, i32 124
  %53 = load i64, ptr %52, align 2
  %54 = lshr i64 %53, 27
  %55 = and i64 %54, 1
  %56 = trunc i64 %55 to i32
  %57 = icmp ne i32 %56, 0
  br i1 %57, label %58, label %88

58:                                               ; preds = %49
  %59 = load ptr, ptr %5, align 8, !tbaa !9
  %60 = getelementptr inbounds nuw %struct.Curl_easy, ptr %59, i32 0, i32 19
  %61 = getelementptr inbounds nuw %struct.UrlState, ptr %60, i32 0, i32 47
  %62 = load ptr, ptr %61, align 8, !tbaa !49
  %63 = icmp ne ptr %62, null
  br i1 %63, label %64, label %72

64:                                               ; preds = %58
  %65 = load ptr, ptr %5, align 8, !tbaa !9
  %66 = getelementptr inbounds nuw %struct.Curl_easy, ptr %65, i32 0, i32 19
  %67 = getelementptr inbounds nuw %struct.UrlState, ptr %66, i32 0, i32 47
  %68 = load ptr, ptr %67, align 8, !tbaa !49
  %69 = getelementptr inbounds nuw %struct.curl_trc_feat, ptr %68, i32 0, i32 1
  %70 = load i32, ptr %69, align 8, !tbaa !111
  %71 = icmp sge i32 %70, 1
  br i1 %71, label %72, label %88

72:                                               ; preds = %64, %58
  %73 = load ptr, ptr %4, align 8, !tbaa !4
  %74 = icmp ne ptr %73, null
  br i1 %74, label %75, label %88

75:                                               ; preds = %72
  %76 = load ptr, ptr %4, align 8, !tbaa !4
  %77 = getelementptr inbounds nuw %struct.Curl_cfilter, ptr %76, i32 0, i32 0
  %78 = load ptr, ptr %77, align 8, !tbaa !43
  %79 = getelementptr inbounds nuw %struct.Curl_cftype, ptr %78, i32 0, i32 2
  %80 = load i32, ptr %79, align 4, !tbaa !113
  %81 = icmp sge i32 %80, 1
  br i1 %81, label %82, label %88

82:                                               ; preds = %75
  %83 = load ptr, ptr %5, align 8, !tbaa !9
  %84 = load ptr, ptr %4, align 8, !tbaa !4
  %85 = load i32, ptr %7, align 4, !tbaa !22
  %86 = call ptr @nghttp2_strerror(i32 noundef %85)
  %87 = load i32, ptr %7, align 4, !tbaa !22
  call void (ptr, ptr, ptr, ...) @Curl_trc_cf_infof(ptr noundef %83, ptr noundef %84, ptr noundef @.str.54, ptr noundef %86, i32 noundef %87)
  br label %88

88:                                               ; preds = %82, %75, %72, %64, %49, %46
  br label %89

89:                                               ; preds = %88
  br label %90

90:                                               ; preds = %89
  store i32 55, ptr %3, align 4
  store i32 1, ptr %8, align 4
  br label %95

91:                                               ; preds = %41
  %92 = load ptr, ptr %4, align 8, !tbaa !4
  %93 = load ptr, ptr %5, align 8, !tbaa !9
  %94 = call i32 @proxy_h2_nw_out_flush(ptr noundef %92, ptr noundef %93)
  store i32 %94, ptr %3, align 4
  store i32 1, ptr %8, align 4
  br label %95

95:                                               ; preds = %91, %90
  call void @llvm.lifetime.end.p0(i64 4, ptr %7) #6
  call void @llvm.lifetime.end.p0(i64 8, ptr %6) #6
  %96 = load i32, ptr %3, align 4
  ret i32 %96
}