; Function Attrs: nounwind uwtable
define internal fastcc i32 @proxy_h2_progress_egress(ptr noundef %0, ptr noundef %1) unnamed_addr #0 {
  %3 = alloca i32, align 4
  %4 = getelementptr inbounds nuw i8, ptr %0, i64 16
  %5 = load ptr, ptr %4, align 8, !tbaa !4
  %6 = getelementptr inbounds nuw i8, ptr %5, i64 312
  %7 = load i8, ptr %6, align 8
  %8 = and i8 %7, -9
  store i8 %8, ptr %6, align 8
  br label %9

9:                                                ; preds = %2, %15
  %10 = load i8, ptr %6, align 8
  %11 = and i8 %10, 8
  %.not23 = icmp eq i8 %11, 0
  br i1 %.not23, label %12, label %.critedge

12:                                               ; preds = %9
  %13 = load ptr, ptr %5, align 8, !tbaa !15
  %14 = tail call i32 @nghttp2_session_want_write(ptr noundef %13) #7
  %.not24 = icmp eq i32 %14, 0
  br i1 %.not24, label %.critedge, label %15

15:                                               ; preds = %12
  %16 = load ptr, ptr %5, align 8, !tbaa !15
  %17 = tail call i32 @nghttp2_session_send(ptr noundef %16) #7
  %.not = icmp eq i32 %17, 0
  br i1 %.not, label %9, label %.critedge, !llvm.loop !148

.critedge:                                        ; preds = %9, %15, %12
  %.0.lcssa = phi i32 [ 0, %9 ], [ %17, %15 ], [ 0, %12 ]
  %18 = tail call i32 @nghttp2_is_fatal(i32 noundef %.0.lcssa) #7
  %.not25 = icmp eq i32 %18, 0
  br i1 %.not25, label %40, label %19

19:                                               ; preds = %.critedge
  %.not26 = icmp eq ptr %1, null
  br i1 %.not26, label %94, label %20

20:                                               ; preds = %19
  %21 = getelementptr inbounds nuw i8, ptr %1, i64 2562
  %22 = load i64, ptr %21, align 2
  %23 = and i64 %22, 134217728
  %.not27 = icmp eq i64 %23, 0
  br i1 %.not27, label %94, label %24

24:                                               ; preds = %20
  %25 = getelementptr inbounds nuw i8, ptr %1, i64 4712
  %26 = load ptr, ptr %25, align 8, !tbaa !108
  %.not28 = icmp eq ptr %26, null
  br i1 %.not28, label %32, label %27

27:                                               ; preds = %24
  %28 = getelementptr inbounds nuw i8, ptr %26, i64 8
  %29 = load i32, ptr %28, align 8, !tbaa !109
  %30 = icmp sgt i32 %29, 0
  %31 = icmp ne ptr %0, null
  %or.cond = and i1 %31, %30
  br i1 %or.cond, label %33, label %94

32:                                               ; preds = %24
  %.old1.not = icmp eq ptr %0, null
  br i1 %.old1.not, label %94, label %33

33:                                               ; preds = %27, %32
  %34 = load ptr, ptr %0, align 8, !tbaa !111
  %35 = getelementptr inbounds nuw i8, ptr %34, i64 12
  %36 = load i32, ptr %35, align 4, !tbaa !112
  %37 = icmp sgt i32 %36, 0
  br i1 %37, label %38, label %94

38:                                               ; preds = %33
  %39 = tail call ptr @nghttp2_strerror(i32 noundef %.0.lcssa) #7
  tail call void (ptr, ptr, ptr, ...) @Curl_trc_cf_infof(ptr noundef nonnull %1, ptr noundef nonnull %0, ptr noundef nonnull @.str.54, ptr noundef %39, i32 noundef %.0.lcssa) #7
  br label %94

40:                                               ; preds = %.critedge
  %41 = load ptr, ptr %4, align 8, !tbaa !4
  call void @llvm.lifetime.start.p0(i64 4, ptr nonnull %3) #7
  %42 = getelementptr inbounds nuw i8, ptr %41, i64 80
  %43 = tail call zeroext i1 @Curl_bufq_is_empty(ptr noundef nonnull %42) #7
  br i1 %43, label %proxy_h2_nw_out_flush.exit, label %44

44:                                               ; preds = %40
  %45 = call i64 @Curl_bufq_pass(ptr noundef nonnull %42, ptr noundef nonnull @proxy_h2_nw_out_writer, ptr noundef nonnull %0, ptr noundef nonnull %3) #7
  %46 = icmp slt i64 %45, 0
  br i1 %46, label %47, label %73

47:                                               ; preds = %44
  %48 = load i32, ptr %3, align 4, !tbaa !40
  %49 = icmp eq i32 %48, 81
  br i1 %49, label %50, label %proxy_h2_nw_out_flush.exit

50:                                               ; preds = %47
  %.not33.i = icmp eq ptr %1, null
  br i1 %.not33.i, label %69, label %51

51:                                               ; preds = %50
  %52 = getelementptr inbounds nuw i8, ptr %1, i64 2562
  %53 = load i64, ptr %52, align 2
  %54 = and i64 %53, 134217728
  %.not34.i = icmp eq i64 %54, 0
  br i1 %.not34.i, label %69, label %55

55:                                               ; preds = %51
  %56 = getelementptr inbounds nuw i8, ptr %1, i64 4712
  %57 = load ptr, ptr %56, align 8, !tbaa !108
  %.not35.i = icmp eq ptr %57, null
  br i1 %.not35.i, label %62, label %58

58:                                               ; preds = %55
  %59 = getelementptr inbounds nuw i8, ptr %57, i64 8
  %60 = load i32, ptr %59, align 8, !tbaa !109
  %61 = icmp sgt i32 %60, 0
  br i1 %61, label %62, label %69

62:                                               ; preds = %58, %55
  %63 = load ptr, ptr %0, align 8, !tbaa !111
  %64 = getelementptr inbounds nuw i8, ptr %63, i64 12
  %65 = load i32, ptr %64, align 4, !tbaa !112
  %66 = icmp sgt i32 %65, 0
  br i1 %66, label %67, label %69

67:                                               ; preds = %62
  %68 = call i64 @Curl_bufq_len(ptr noundef nonnull %42) #7
  call void (ptr, ptr, ptr, ...) @Curl_trc_cf_infof(ptr noundef nonnull %1, ptr noundef nonnull %0, ptr noundef nonnull @.str.55, i64 noundef %68) #7
  %.pre.pre.i = load i32, ptr %3, align 4, !tbaa !40
  br label %69

69:                                               ; preds = %67, %62, %58, %51, %50
  %.pre.i = phi i32 [ %.pre.pre.i, %67 ], [ 81, %62 ], [ 81, %58 ], [ 81, %51 ], [ 81, %50 ]
  %70 = getelementptr inbounds nuw i8, ptr %41, i64 312
  %71 = load i8, ptr %70, align 8
  %72 = or i8 %71, 8
  store i8 %72, ptr %70, align 8
  br label %proxy_h2_nw_out_flush.exit

73:                                               ; preds = %44
  %.not.i = icmp eq ptr %1, null
  br i1 %.not.i, label %91, label %74

74:                                               ; preds = %73
  %75 = getelementptr inbounds nuw i8, ptr %1, i64 2562
  %76 = load i64, ptr %75, align 2
  %77 = and i64 %76, 134217728
  %.not31.i = icmp eq i64 %77, 0
  br i1 %.not31.i, label %91, label %78

78:                                               ; preds = %74
  %79 = getelementptr inbounds nuw i8, ptr %1, i64 4712
  %80 = load ptr, ptr %79, align 8, !tbaa !108
  %.not32.i = icmp eq ptr %80, null
  br i1 %.not32.i, label %85, label %81

81:                                               ; preds = %78
  %82 = getelementptr inbounds nuw i8, ptr %80, i64 8
  %83 = load i32, ptr %82, align 8, !tbaa !109
  %84 = icmp sgt i32 %83, 0
  br i1 %84, label %85, label %91

85:                                               ; preds = %81, %78
  %86 = load ptr, ptr %0, align 8, !tbaa !111
  %87 = getelementptr inbounds nuw i8, ptr %86, i64 12
  %88 = load i32, ptr %87, align 4, !tbaa !112
  %89 = icmp sgt i32 %88, 0
  br i1 %89, label %90, label %91

90:                                               ; preds = %85
  call void (ptr, ptr, ptr, ...) @Curl_trc_cf_infof(ptr noundef nonnull %1, ptr noundef nonnull %0, ptr noundef nonnull @.str.56) #7
  br label %91

91:                                               ; preds = %90, %85, %81, %74, %73
  %92 = call zeroext i1 @Curl_bufq_is_empty(ptr noundef nonnull %42) #7
  %93 = select i1 %92, i32 0, i32 81
  br label %proxy_h2_nw_out_flush.exit

proxy_h2_nw_out_flush.exit:                       ; preds = %40, %47, %69, %91
  %.0.i = phi i32 [ %93, %91 ], [ 0, %40 ], [ %.pre.i, %69 ], [ %48, %47 ]
  call void @llvm.lifetime.end.p0(i64 4, ptr nonnull %3) #7
  br label %94

94:                                               ; preds = %19, %20, %27, %32, %33, %38, %proxy_h2_nw_out_flush.exit
  %.020 = phi i32 [ %.0.i, %proxy_h2_nw_out_flush.exit ], [ 55, %38 ], [ 55, %33 ], [ 55, %32 ], [ 55, %27 ], [ 55, %20 ], [ 55, %19 ]
  ret i32 %.020
}